; Function Attrs: mustprogress nofree norecurse nosync nounwind willreturn memory(argmem: readwrite) uwtable
define internal nonnull ptr @Pack3BytesSwapOptimized(ptr nocapture readnone %0, ptr nocapture noundef readonly %1, ptr noundef writeonly %2, i32 %3) #3 {
  %5 = getelementptr inbounds i8, ptr %1, i64 4
  %6 = load i16, ptr %5, align 2
  %7 = trunc i16 %6 to i8
  %8 = getelementptr inbounds i8, ptr %2, i64 1
  store i8 %7, ptr %2, align 1
  %9 = getelementptr inbounds i8, ptr %1, i64 2
  %10 = load i16, ptr %9, align 2
  %11 = trunc i16 %10 to i8
  %12 = getelementptr inbounds i8, ptr %2, i64 2
  store i8 %11, ptr %8, align 1
  %13 = load i16, ptr %1, align 2
  %14 = trunc i16 %13 to i8
  %15 = getelementptr inbounds i8, ptr %2, i64 3
  store i8 %14, ptr %12, align 1
  ret ptr %15
}